; Function Attrs: mustprogress uwtable
define internal void @_ZN12_GLOBAL__N_15BTVL114collectGarbageEv(ptr noundef nonnull align 8 dereferenceable(1456) %0) unnamed_addr #0 align 2 personality ptr @__gxx_personality_v0 {
  %2 = getelementptr inbounds i8, ptr %0, i64 1000
  tail call void @_ZN2cv3Mat7releaseEv(ptr noundef nonnull align 8 dereferenceable(96) %2)
  %3 = getelementptr inbounds i8, ptr %0, i64 1096
  tail call void @_ZN2cv3Mat7releaseEv(ptr noundef nonnull align 8 dereferenceable(96) %3)
  %4 = getelementptr inbounds i8, ptr %0, i64 1192
  %5 = load ptr, ptr %4, align 8
  %6 = getelementptr inbounds i8, ptr %0, i64 1200
  %7 = load ptr, ptr %6, align 8
  %.not.i.i = icmp eq ptr %7, %5
  br i1 %.not.i.i, label %_ZNSt6vectorIN2cv3MatESaIS1_EE5clearEv.exit, label %.lr.ph.i.i.i.i.i

.lr.ph.i.i.i.i.i:                                 ; preds = %1, %.lr.ph.i.i.i.i.i
  %.05.i.i.i.i.i = phi ptr [ %8, %.lr.ph.i.i.i.i.i ], [ %5, %1 ]
  tail call void @_ZN2cv3MatD1Ev(ptr noundef nonnull align 8 dereferenceable(96) %.05.i.i.i.i.i) #29
  %8 = getelementptr inbounds i8, ptr %.05.i.i.i.i.i, i64 96
  %.not.i.i.i.i.i = icmp eq ptr %8, %7
  br i1 %.not.i.i.i.i.i, label %_ZSt8_DestroyIPN2cv3MatES1_EvT_S3_RSaIT0_E.exit.i.i, label %.lr.ph.i.i.i.i.i, !llvm.loop !9

_ZSt8_DestroyIPN2cv3MatES1_EvT_S3_RSaIT0_E.exit.i.i: ; preds = %.lr.ph.i.i.i.i.i
  store ptr %5, ptr %6, align 8
  br label %_ZNSt6vectorIN2cv3MatESaIS1_EE5clearEv.exit

_ZNSt6vectorIN2cv3MatESaIS1_EE5clearEv.exit:      ; preds = %1, %_ZSt8_DestroyIPN2cv3MatES1_EvT_S3_RSaIT0_E.exit.i.i
  %9 = getelementptr inbounds i8, ptr %0, i64 1216
  %10 = load ptr, ptr %9, align 8
  %11 = getelementptr inbounds i8, ptr %0, i64 1224
  %12 = load ptr, ptr %11, align 8
  %.not.i.i1 = icmp eq ptr %12, %10
  br i1 %.not.i.i1, label %_ZNSt6vectorIN2cv3MatESaIS1_EE5clearEv.exit6, label %.lr.ph.i.i.i.i.i2

.lr.ph.i.i.i.i.i2:                                ; preds = %_ZNSt6vectorIN2cv3MatESaIS1_EE5clearEv.exit, %.lr.ph.i.i.i.i.i2
  %.05.i.i.i.i.i3 = phi ptr [ %13, %.lr.ph.i.i.i.i.i2 ], [ %10, %_ZNSt6vectorIN2cv3MatESaIS1_EE5clearEv.exit ]
  tail call void @_ZN2cv3MatD1Ev(ptr noundef nonnull align 8 dereferenceable(96) %.05.i.i.i.i.i3) #29
  %13 = getelementptr inbounds i8, ptr %.05.i.i.i.i.i3, i64 96
  %.not.i.i.i.i.i4 = icmp eq ptr %13, %12
  br i1 %.not.i.i.i.i.i4, label %_ZSt8_DestroyIPN2cv3MatES1_EvT_S3_RSaIT0_E.exit.i.i5, label %.lr.ph.i.i.i.i.i2, !llvm.loop !9

_ZSt8_DestroyIPN2cv3MatES1_EvT_S3_RSaIT0_E.exit.i.i5: ; preds = %.lr.ph.i.i.i.i.i2
  store ptr %10, ptr %11, align 8
  br label %_ZNSt6vectorIN2cv3MatESaIS1_EE5clearEv.exit6

_ZNSt6vectorIN2cv3MatESaIS1_EE5clearEv.exit6:     ; preds = %_ZNSt6vectorIN2cv3MatESaIS1_EE5clearEv.exit, %_ZSt8_DestroyIPN2cv3MatES1_EvT_S3_RSaIT0_E.exit.i.i5
  %14 = getelementptr inbounds i8, ptr %0, i64 1240
  %15 = load ptr, ptr %14, align 8
  %16 = getelementptr inbounds i8, ptr %0, i64 1248
  %17 = load ptr, ptr %16, align 8
  %.not.i.i7 = icmp eq ptr %17, %15
  br i1 %.not.i.i7, label %_ZNSt6vectorIN2cv3MatESaIS1_EE5clearEv.exit12, label %.lr.ph.i.i.i.i.i8

.lr.ph.i.i.i.i.i8:                                ; preds = %_ZNSt6vectorIN2cv3MatESaIS1_EE5clearEv.exit6, %.lr.ph.i.i.i.i.i8
  %.05.i.i.i.i.i9 = phi ptr [ %18, %.lr.ph.i.i.i.i.i8 ], [ %15, %_ZNSt6vectorIN2cv3MatESaIS1_EE5clearEv.exit6 ]
  tail call void @_ZN2cv3MatD1Ev(ptr noundef nonnull align 8 dereferenceable(96) %.05.i.i.i.i.i9) #29
  %18 = getelementptr inbounds i8, ptr %.05.i.i.i.i.i9, i64 96
  %.not.i.i.i.i.i10 = icmp eq ptr %18, %17
  br i1 %.not.i.i.i.i.i10, label %_ZSt8_DestroyIPN2cv3MatES1_EvT_S3_RSaIT0_E.exit.i.i11, label %.lr.ph.i.i.i.i.i8, !llvm.loop !9

_ZSt8_DestroyIPN2cv3MatES1_EvT_S3_RSaIT0_E.exit.i.i11: ; preds = %.lr.ph.i.i.i.i.i8
  store ptr %15, ptr %16, align 8
  br label %_ZNSt6vectorIN2cv3MatESaIS1_EE5clearEv.exit12

_ZNSt6vectorIN2cv3MatESaIS1_EE5clearEv.exit12:    ; preds = %_ZNSt6vectorIN2cv3MatESaIS1_EE5clearEv.exit6, %_ZSt8_DestroyIPN2cv3MatES1_EvT_S3_RSaIT0_E.exit.i.i11
  %19 = getelementptr inbounds i8, ptr %0, i64 1264
  %20 = load ptr, ptr %19, align 8
  %21 = getelementptr inbounds i8, ptr %0, i64 1272
  %22 = load ptr, ptr %21, align 8
  %.not.i.i13 = icmp eq ptr %22, %20
  br i1 %.not.i.i13, label %_ZNSt6vectorIN2cv3MatESaIS1_EE5clearEv.exit18, label %.lr.ph.i.i.i.i.i14

.lr.ph.i.i.i.i.i14:                               ; preds = %_ZNSt6vectorIN2cv3MatESaIS1_EE5clearEv.exit12, %.lr.ph.i.i.i.i.i14
  %.05.i.i.i.i.i15 = phi ptr [ %23, %.lr.ph.i.i.i.i.i14 ], [ %20, %_ZNSt6vectorIN2cv3MatESaIS1_EE5clearEv.exit12 ]
  tail call void @_ZN2cv3MatD1Ev(ptr noundef nonnull align 8 dereferenceable(96) %.05.i.i.i.i.i15) #29
  %23 = getelementptr inbounds i8, ptr %.05.i.i.i.i.i15, i64 96
  %.not.i.i.i.i.i16 = icmp eq ptr %23, %22
  br i1 %.not.i.i.i.i.i16, label %_ZSt8_DestroyIPN2cv3MatES1_EvT_S3_RSaIT0_E.exit.i.i17, label %.lr.ph.i.i.i.i.i14, !llvm.loop !9

_ZSt8_DestroyIPN2cv3MatES1_EvT_S3_RSaIT0_E.exit.i.i17: ; preds = %.lr.ph.i.i.i.i.i14
  store ptr %20, ptr %21, align 8
  br label %_ZNSt6vectorIN2cv3MatESaIS1_EE5clearEv.exit18

_ZNSt6vectorIN2cv3MatESaIS1_EE5clearEv.exit18:    ; preds = %_ZNSt6vectorIN2cv3MatESaIS1_EE5clearEv.exit12, %_ZSt8_DestroyIPN2cv3MatES1_EvT_S3_RSaIT0_E.exit.i.i17
  %24 = getelementptr inbounds i8, ptr %0, i64 1288
  %25 = load ptr, ptr %24, align 8
  %26 = getelementptr inbounds i8, ptr %0, i64 1296
  %27 = load ptr, ptr %26, align 8
  %.not.i.i19 = icmp eq ptr %27, %25
  br i1 %.not.i.i19, label %_ZNSt6vectorIN2cv3MatESaIS1_EE5clearEv.exit24, label %.lr.ph.i.i.i.i.i20

.lr.ph.i.i.i.i.i20:                               ; preds = %_ZNSt6vectorIN2cv3MatESaIS1_EE5clearEv.exit18, %.lr.ph.i.i.i.i.i20
  %.05.i.i.i.i.i21 = phi ptr [ %28, %.lr.ph.i.i.i.i.i20 ], [ %25, %_ZNSt6vectorIN2cv3MatESaIS1_EE5clearEv.exit18 ]
  tail call void @_ZN2cv3MatD1Ev(ptr noundef nonnull align 8 dereferenceable(96) %.05.i.i.i.i.i21) #29
  %28 = getelementptr inbounds i8, ptr %.05.i.i.i.i.i21, i64 96
  %.not.i.i.i.i.i22 = icmp eq ptr %28, %27
  br i1 %.not.i.i.i.i.i22, label %_ZSt8_DestroyIPN2cv3MatES1_EvT_S3_RSaIT0_E.exit.i.i23, label %.lr.ph.i.i.i.i.i20, !llvm.loop !9

_ZSt8_DestroyIPN2cv3MatES1_EvT_S3_RSaIT0_E.exit.i.i23: ; preds = %.lr.ph.i.i.i.i.i20
  store ptr %25, ptr %26, align 8
  br label %_ZNSt6vectorIN2cv3MatESaIS1_EE5clearEv.exit24

_ZNSt6vectorIN2cv3MatESaIS1_EE5clearEv.exit24:    ; preds = %_ZNSt6vectorIN2cv3MatESaIS1_EE5clearEv.exit18, %_ZSt8_DestroyIPN2cv3MatES1_EvT_S3_RSaIT0_E.exit.i.i23
  %29 = getelementptr inbounds i8, ptr %0, i64 1312
  %30 = load ptr, ptr %29, align 8
  %31 = getelementptr inbounds i8, ptr %0, i64 1320
  %32 = load ptr, ptr %31, align 8
  %.not.i.i25 = icmp eq ptr %32, %30
  br i1 %.not.i.i25, label %_ZNSt6vectorIN2cv3MatESaIS1_EE5clearEv.exit30, label %.lr.ph.i.i.i.i.i26

.lr.ph.i.i.i.i.i26:                               ; preds = %_ZNSt6vectorIN2cv3MatESaIS1_EE5clearEv.exit24, %.lr.ph.i.i.i.i.i26
  %.05.i.i.i.i.i27 = phi ptr [ %33, %.lr.ph.i.i.i.i.i26 ], [ %30, %_ZNSt6vectorIN2cv3MatESaIS1_EE5clearEv.exit24 ]
  tail call void @_ZN2cv3MatD1Ev(ptr noundef nonnull align 8 dereferenceable(96) %.05.i.i.i.i.i27) #29
  %33 = getelementptr inbounds i8, ptr %.05.i.i.i.i.i27, i64 96
  %.not.i.i.i.i.i28 = icmp eq ptr %33, %32
  br i1 %.not.i.i.i.i.i28, label %_ZSt8_DestroyIPN2cv3MatES1_EvT_S3_RSaIT0_E.exit.i.i29, label %.lr.ph.i.i.i.i.i26, !llvm.loop !9

_ZSt8_DestroyIPN2cv3MatES1_EvT_S3_RSaIT0_E.exit.i.i29: ; preds = %.lr.ph.i.i.i.i.i26
  store ptr %30, ptr %31, align 8
  br label %_ZNSt6vectorIN2cv3MatESaIS1_EE5clearEv.exit30

_ZNSt6vectorIN2cv3MatESaIS1_EE5clearEv.exit30:    ; preds = %_ZNSt6vectorIN2cv3MatESaIS1_EE5clearEv.exit24, %_ZSt8_DestroyIPN2cv3MatES1_EvT_S3_RSaIT0_E.exit.i.i29
  %34 = getelementptr inbounds i8, ptr %0, i64 1336
  %35 = load ptr, ptr %34, align 8
  %36 = getelementptr inbounds i8, ptr %0, i64 1344
  %37 = load ptr, ptr %36, align 8
  %.not.i.i31 = icmp eq ptr %37, %35
  br i1 %.not.i.i31, label %_ZNSt6vectorIN2cv3MatESaIS1_EE5clearEv.exit36, label %.lr.ph.i.i.i.i.i32

.lr.ph.i.i.i.i.i32:                               ; preds = %_ZNSt6vectorIN2cv3MatESaIS1_EE5clearEv.exit30, %.lr.ph.i.i.i.i.i32
  %.05.i.i.i.i.i33 = phi ptr [ %38, %.lr.ph.i.i.i.i.i32 ], [ %35, %_ZNSt6vectorIN2cv3MatESaIS1_EE5clearEv.exit30 ]
  tail call void @_ZN2cv3MatD1Ev(ptr noundef nonnull align 8 dereferenceable(96) %.05.i.i.i.i.i33) #29
  %38 = getelementptr inbounds i8, ptr %.05.i.i.i.i.i33, i64 96
  %.not.i.i.i.i.i34 = icmp eq ptr %38, %37
  br i1 %.not.i.i.i.i.i34, label %_ZSt8_DestroyIPN2cv3MatES1_EvT_S3_RSaIT0_E.exit.i.i35, label %.lr.ph.i.i.i.i.i32, !llvm.loop !9

_ZSt8_DestroyIPN2cv3MatES1_EvT_S3_RSaIT0_E.exit.i.i35: ; preds = %.lr.ph.i.i.i.i.i32
  store ptr %35, ptr %36, align 8
  br label %_ZNSt6vectorIN2cv3MatESaIS1_EE5clearEv.exit36

_ZNSt6vectorIN2cv3MatESaIS1_EE5clearEv.exit36:    ; preds = %_ZNSt6vectorIN2cv3MatESaIS1_EE5clearEv.exit30, %_ZSt8_DestroyIPN2cv3MatES1_EvT_S3_RSaIT0_E.exit.i.i35
  %39 = getelementptr inbounds i8, ptr %0, i64 1360
  tail call void @_ZN2cv3Mat7releaseEv(ptr noundef nonnull align 8 dereferenceable(96) %39)
  tail call void @_ZN2cv8superres15SuperResolution14collectGarbageEv(ptr noundef nonnull align 8 dereferenceable(41) %0)
  tail call void @_ZN12_GLOBAL__N_110BTVL1_Base14collectGarbageEv(ptr noundef nonnull align 8 dereferenceable(984) %0)
  ret void
}